; Function Attrs: mustprogress nofree norecurse nosync nounwind memory(readwrite, inaccessiblemem: none) uwtable
define internal fastcc void @"_ZZN8facebook5velox4bits10forEachBitIZNS0_9functions12_GLOBAL__N_112flattenNullsERKNS0_17SelectivityVectorERKNS0_13DecodedVectorEE3$_0EEvPKmiibT_ENKUlimE_clEim"(ptr nocapture noundef nonnull readonly align 8 dereferenceable(32) %this, i32 noundef %idx, i64 noundef %mask) unnamed_addr #12 align 2 {
entry:
  %0 = load i8, ptr %this, align 8
  %1 = and i8 %0, 1
  %2 = getelementptr inbounds i8, ptr %this, i64 8
  %3 = load ptr, ptr %2, align 8
  %idxprom2 = sext i32 %idx to i64
  %arrayidx3 = getelementptr inbounds i64, ptr %3, i64 %idxprom2
  %4 = load i64, ptr %arrayidx3, align 8
  %sext = add nsw i8 %1, -1
  %not = sext i8 %sext to i64
  %cond = xor i64 %4, %not
  %and = and i64 %cond, %mask
  %tobool4.not = icmp eq i64 %and, 0
  br i1 %tobool4.not, label %while.end, label %while.body.preheader

while.body.preheader:                             ; preds = %entry
  %5 = getelementptr inbounds i8, ptr %this, i64 16
  %mul = shl nsw i32 %idx, 6
  %6 = getelementptr inbounds i8, ptr %this, i64 24
  br label %while.body

while.body:                                       ; preds = %while.body.preheader, %"_ZZN8facebook5velox9functions12_GLOBAL__N_112flattenNullsERKNS0_17SelectivityVectorERKNS0_13DecodedVectorEENK3$_0clEi.exit"
  %word.0 = phi i64 [ %and6, %"_ZZN8facebook5velox9functions12_GLOBAL__N_112flattenNullsERKNS0_17SelectivityVectorERKNS0_13DecodedVectorEENK3$_0clEi.exit" ], [ %and, %while.body.preheader ]
  %7 = tail call i64 @llvm.cttz.i64(i64 %word.0, i1 true), !range !32
  %cast = trunc i64 %7 to i32
  %add = or disjoint i32 %mul, %cast
  %.val = load ptr, ptr %5, align 8
  %.val8 = load ptr, ptr %6, align 8
  %.val.val = load ptr, ptr %.val, align 8
  %nulls_.i.i = getelementptr inbounds i8, ptr %.val8, i64 24
  %8 = load ptr, ptr %nulls_.i.i, align 8
  %tobool.not.i.i = icmp eq ptr %8, null
  br i1 %tobool.not.i.i, label %_ZNK8facebook5velox13DecodedVector8isNullAtEi.exit.thread.i, label %if.end.i.i

_ZNK8facebook5velox13DecodedVector8isNullAtEi.exit.thread.i: ; preds = %while.body
  %rem.i.i.i2.i = and i32 %cast, 7
  br label %cond.true.i.i.i

if.end.i.i:                                       ; preds = %while.body
  %isIdentityMapping_.i.i = getelementptr inbounds i8, ptr %.val8, i64 58
  %9 = load i8, ptr %isIdentityMapping_.i.i, align 2
  %10 = and i8 %9, 1
  %tobool2.not.i.i = icmp eq i8 %10, 0
  br i1 %tobool2.not.i.i, label %lor.lhs.false.i.i, label %if.then4.i.i

lor.lhs.false.i.i:                                ; preds = %if.end.i.i
  %hasExtraNulls_.i.i = getelementptr inbounds i8, ptr %.val8, i64 57
  %11 = load i8, ptr %hasExtraNulls_.i.i, align 1
  %12 = and i8 %11, 1
  %tobool3.not.i.i = icmp eq i8 %12, 0
  br i1 %tobool3.not.i.i, label %if.end6.i.i, label %if.then4.i.i

if.then4.i.i:                                     ; preds = %lor.lhs.false.i.i, %if.end.i.i
  %conv.i.i.i.i = sext i32 %add to i64
  %div2.i.i.i.i = lshr i64 %conv.i.i.i.i, 6
  %arrayidx.i.i.i.i = getelementptr inbounds i64, ptr %8, i64 %div2.i.i.i.i
  %13 = load i64, ptr %arrayidx.i.i.i.i, align 8
  %and.i.i.i.i = and i64 %conv.i.i.i.i, 63
  %shl.i.i.i.i = shl nuw i64 1, %and.i.i.i.i
  %and2.i.i.i.i = and i64 %13, %shl.i.i.i.i
  %tobool.i.not.i.i.i = icmp eq i64 %and2.i.i.i.i, 0
  %rem.i.i.i4.i = and i32 %cast, 7
  br i1 %tobool.i.not.i.i.i, label %cond.false.i.i.i, label %cond.true.i.i.i

if.end6.i.i:                                      ; preds = %lor.lhs.false.i.i
  %isConstantMapping_.i.i = getelementptr inbounds i8, ptr %.val8, i64 59
  %14 = load i8, ptr %isConstantMapping_.i.i, align 1
  %15 = and i8 %14, 1
  %tobool7.not.i.i = icmp eq i8 %15, 0
  br i1 %tobool7.not.i.i, label %_ZNK8facebook5velox13DecodedVector8isNullAtEi.exit.i, label %if.then8.i.i

if.then8.i.i:                                     ; preds = %if.end6.i.i
  %16 = load i64, ptr %8, align 8
  %and2.i.i2.i.i = and i64 %16, 1
  %tobool.i.not.i3.i.i = icmp eq i64 %and2.i.i2.i.i, 0
  %rem.i.i.i6.i = and i32 %cast, 7
  br i1 %tobool.i.not.i3.i.i, label %cond.false.i.i.i, label %cond.true.i.i.i

_ZNK8facebook5velox13DecodedVector8isNullAtEi.exit.i: ; preds = %if.end6.i.i
  %indices_.i.i = getelementptr inbounds i8, ptr %.val8, i64 8
  %17 = load ptr, ptr %indices_.i.i, align 8
  %idxprom.i.i = sext i32 %add to i64
  %arrayidx.i.i = getelementptr inbounds i32, ptr %17, i64 %idxprom.i.i
  %18 = load i32, ptr %arrayidx.i.i, align 4
  %conv.i.i4.i.i = sext i32 %18 to i64
  %div2.i.i5.i.i = lshr i64 %conv.i.i4.i.i, 6
  %arrayidx.i.i6.i.i = getelementptr inbounds i64, ptr %8, i64 %div2.i.i5.i.i
  %19 = load i64, ptr %arrayidx.i.i6.i.i, align 8
  %and.i.i7.i.i = and i64 %conv.i.i4.i.i, 63
  %shl.i.i8.i.i = shl nuw i64 1, %and.i.i7.i.i
  %and2.i.i9.i.i = and i64 %shl.i.i8.i.i, %19
  %tobool.i.not.i10.i.i = icmp eq i64 %and2.i.i9.i.i, 0
  %rem.i.i.i.i = and i32 %cast, 7
  br i1 %tobool.i.not.i10.i.i, label %cond.false.i.i.i, label %cond.true.i.i.i

cond.true.i.i.i:                                  ; preds = %_ZNK8facebook5velox13DecodedVector8isNullAtEi.exit.i, %if.then8.i.i, %if.then4.i.i, %_ZNK8facebook5velox13DecodedVector8isNullAtEi.exit.thread.i
  %rem.i.i.i3.i = phi i32 [ %rem.i.i.i2.i, %_ZNK8facebook5velox13DecodedVector8isNullAtEi.exit.thread.i ], [ %rem.i.i.i.i, %_ZNK8facebook5velox13DecodedVector8isNullAtEi.exit.i ], [ %rem.i.i.i4.i, %if.then4.i.i ], [ %rem.i.i.i6.i, %if.then8.i.i ]
  %shl.i.i.i2.i = shl nuw nsw i32 1, %rem.i.i.i3.i
  %div2.i.i.i3.i = lshr i32 %add, 3
  %idxprom.i.i.i.i = zext nneg i32 %div2.i.i.i3.i to i64
  %arrayidx.i.i.i4.i = getelementptr inbounds i8, ptr %.val.val, i64 %idxprom.i.i.i.i
  %20 = load i8, ptr %arrayidx.i.i.i4.i, align 1
  %21 = trunc i32 %shl.i.i.i2.i to i8
  %conv1.i.i.i.i = or i8 %20, %21
  store i8 %conv1.i.i.i.i, ptr %arrayidx.i.i.i4.i, align 1
  br label %"_ZZN8facebook5velox9functions12_GLOBAL__N_112flattenNullsERKNS0_17SelectivityVectorERKNS0_13DecodedVectorEENK3$_0clEi.exit"

cond.false.i.i.i:                                 ; preds = %_ZNK8facebook5velox13DecodedVector8isNullAtEi.exit.i, %if.then8.i.i, %if.then4.i.i
  %rem.i.i.i5.i = phi i32 [ %rem.i.i.i4.i, %if.then4.i.i ], [ %rem.i.i.i.i, %_ZNK8facebook5velox13DecodedVector8isNullAtEi.exit.i ], [ %rem.i.i.i6.i, %if.then8.i.i ]
  %idxprom.i4.i.i.i = zext nneg i32 %rem.i.i.i5.i to i64
  %arrayidx.i5.i.i.i = getelementptr inbounds [8 x i8], ptr @_ZN8facebook5velox4bitsL13kZeroBitmasksE, i64 0, i64 %idxprom.i4.i.i.i
  %22 = load i8, ptr %arrayidx.i5.i.i.i, align 1
  %div2.i6.i.i.i = lshr i32 %add, 3
  %idxprom1.i.i.i.i = zext nneg i32 %div2.i6.i.i.i to i64
  %arrayidx2.i.i.i.i = getelementptr inbounds i8, ptr %.val.val, i64 %idxprom1.i.i.i.i
  %23 = load i8, ptr %arrayidx2.i.i.i.i, align 1
  %and3.i.i.i.i = and i8 %23, %22
  store i8 %and3.i.i.i.i, ptr %arrayidx2.i.i.i.i, align 1
  br label %"_ZZN8facebook5velox9functions12_GLOBAL__N_112flattenNullsERKNS0_17SelectivityVectorERKNS0_13DecodedVectorEENK3$_0clEi.exit"

"_ZZN8facebook5velox9functions12_GLOBAL__N_112flattenNullsERKNS0_17SelectivityVectorERKNS0_13DecodedVectorEENK3$_0clEi.exit": ; preds = %cond.true.i.i.i, %cond.false.i.i.i
  %sub = add i64 %word.0, -1
  %and6 = and i64 %sub, %word.0
  %tobool5.old.not = icmp eq i64 %and6, 0
  br i1 %tobool5.old.not, label %while.end, label %while.body

while.end:                                        ; preds = %"_ZZN8facebook5velox9functions12_GLOBAL__N_112flattenNullsERKNS0_17SelectivityVectorERKNS0_13DecodedVectorEENK3$_0clEi.exit", %entry
  ret void
}